target datalayout = "e-m:e-p270:32:32-p271:32:32-p272:64:64-i64:64-i128:128-f80:128-n8:16:32:64-S128"
target triple = "x86_64-pc-linux-gnu"

%"class.llvm::SmallVectorBase" = type { ptr, i32, i32 }
%"class.(anonymous namespace)::ConstraintInfo" = type { %"class.llvm::ConstraintSystem", %"class.llvm::ConstraintSystem", ptr }
%"class.llvm::ConstraintSystem" = type { i64, %"class.llvm::SmallVector.166", %"class.llvm::DenseMap.171" }
%"class.llvm::SmallVector.166" = type { %"class.llvm::SmallVectorImpl.167", %"struct.llvm::SmallVectorStorage.170" }
%"class.llvm::SmallVectorImpl.167" = type { %"class.llvm::SmallVectorTemplateBase.168" }
%"class.llvm::SmallVectorTemplateBase.168" = type { %"class.llvm::SmallVectorTemplateCommon.169" }
%"class.llvm::SmallVectorTemplateCommon.169" = type { %"class.llvm::SmallVectorBase" }
%"struct.llvm::SmallVectorStorage.170" = type { [576 x i8] }
%"class.llvm::DenseMap.171" = type <{ ptr, i32, i32, i32, [4 x i8] }>
%"struct.(anonymous namespace)::ConditionTy" = type { i32, ptr, ptr }
%"struct.(anonymous namespace)::ConstraintTy" = type <{ %"class.llvm::SmallVector.328", %"class.llvm::SmallVector.333", %"class.llvm::SmallVector.338", i8, i8, i8, [5 x i8] }>
%"class.llvm::SmallVector.328" = type { %"class.llvm::SmallVectorImpl.329", %"struct.llvm::SmallVectorStorage.332" }
%"class.llvm::SmallVectorImpl.329" = type { %"class.llvm::SmallVectorTemplateBase.330" }
%"class.llvm::SmallVectorTemplateBase.330" = type { %"class.llvm::SmallVectorTemplateCommon.331" }
%"class.llvm::SmallVectorTemplateCommon.331" = type { %"class.llvm::SmallVectorBase" }
%"struct.llvm::SmallVectorStorage.332" = type { [64 x i8] }
%"class.llvm::SmallVector.333" = type { %"class.llvm::SmallVectorImpl.334", %"struct.llvm::SmallVectorStorage.337" }
%"class.llvm::SmallVectorImpl.334" = type { %"class.llvm::SmallVectorTemplateBase.335" }
%"class.llvm::SmallVectorTemplateBase.335" = type { %"class.llvm::SmallVectorTemplateCommon.336" }
%"class.llvm::SmallVectorTemplateCommon.336" = type { %"class.llvm::SmallVectorBase" }
%"struct.llvm::SmallVectorStorage.337" = type { [48 x i8] }
%"class.llvm::SmallVector.338" = type { %"class.llvm::SmallVectorImpl.339", %"struct.llvm::SmallVectorStorage.342" }
%"class.llvm::SmallVectorImpl.339" = type { %"class.llvm::SmallVectorTemplateBase.340" }
%"class.llvm::SmallVectorTemplateBase.340" = type { %"class.llvm::SmallVectorTemplateCommon.341" }
%"class.llvm::SmallVectorTemplateCommon.341" = type { %"class.llvm::SmallVectorBase" }
%"struct.llvm::SmallVectorStorage.342" = type { [80 x i8] }
%class.anon.492 = type { ptr }

; Function Attrs: mustprogress nounwind uwtable
define internal noundef ptr @_ZNK4llvm25SmallVectorTemplateCommonIN12_GLOBAL__N_111ConditionTyEvE3endEv(ptr noundef nonnull align 8 dereferenceable(16) %0) #1 align 2 {
  %2 = alloca ptr, align 8
  store ptr %0, ptr %2, align 8
  %3 = load ptr, ptr %2, align 8
  %4 = call noundef ptr @_ZNK4llvm25SmallVectorTemplateCommonIN12_GLOBAL__N_111ConditionTyEvE5beginEv(ptr noundef nonnull align 8 dereferenceable(16) %3)
  %5 = call noundef i64 @_ZNK4llvm15SmallVectorBaseIjE4sizeEv(ptr noundef nonnull align 8 dereferenceable(16) %3)
  %6 = getelementptr inbounds %"struct.(anonymous namespace)::ConditionTy", ptr %4, i64 %5
  ret ptr %6
}

; Function Attrs: mustprogress nounwind uwtable
define internal noundef ptr @_ZNK4llvm25SmallVectorTemplateCommonIN12_GLOBAL__N_111ConditionTyEvE5beginEv(ptr noundef nonnull align 8 dereferenceable(16) %0) #1 align 2 {
  %2 = alloca ptr, align 8
  store ptr %0, ptr %2, align 8
  %3 = load ptr, ptr %2, align 8
  %4 = getelementptr inbounds nuw %"class.llvm::SmallVectorBase", ptr %3, i32 0, i32 0
  %5 = load ptr, ptr %4, align 8
  ret ptr %5
}

; Function Attrs: mustprogress nounwind uwtable
define internal noundef ptr @_ZSt3endIN4llvm11SmallVectorIN12_GLOBAL__N_111ConditionTyELj2EEEEDTcldtfp_3endEERKT_(ptr noundef nonnull align 8 dereferenceable(64) %0) #1 {
  %2 = alloca ptr, align 8
  store ptr %0, ptr %2, align 8
  %3 = load ptr, ptr %2, align 8
  %4 = call noundef ptr @_ZNK4llvm25SmallVectorTemplateCommonIN12_GLOBAL__N_111ConditionTyEvE3endEv(ptr noundef nonnull align 8 dereferenceable(16) %3)
  ret ptr %4
}

; Function Attrs: mustprogress nounwind uwtable
define internal noundef ptr @_ZSt5beginIN4llvm11SmallVectorIN12_GLOBAL__N_111ConditionTyELj2EEEEDTcldtfp_5beginEERKT_(ptr noundef nonnull align 8 dereferenceable(64) %0) #1 {
  %2 = alloca ptr, align 8
  store ptr %0, ptr %2, align 8
  %3 = load ptr, ptr %2, align 8
  %4 = call noundef ptr @_ZNK4llvm25SmallVectorTemplateCommonIN12_GLOBAL__N_111ConditionTyEvE5beginEv(ptr noundef nonnull align 8 dereferenceable(16) %3)
  ret ptr %4
}

; Function Attrs: mustprogress nounwind uwtable
define linkonce_odr hidden noundef ptr @_ZNK4llvm25SmallVectorTemplateCommonIlvE10getFirstElEv(ptr noundef nonnull align 8 dereferenceable(16) %0) #1 comdat align 2 {
  %2 = alloca ptr, align 8
  store ptr %0, ptr %2, align 8
  %3 = load ptr, ptr %2, align 8
  %4 = getelementptr inbounds i8, ptr %3, i64 16
  ret ptr %4
}

; Function Attrs: mustprogress nounwind uwtable
define linkonce_odr hidden void @_ZN4llvm25SmallVectorTemplateCommonIlvEC2Em(ptr noundef nonnull align 8 dereferenceable(16) %0, i64 noundef %1) unnamed_addr #1 comdat align 2 {
  %3 = alloca ptr, align 8
  %4 = alloca i64, align 8
  store ptr %0, ptr %3, align 8
  store i64 %1, ptr %4, align 8
  %5 = load ptr, ptr %3, align 8
  %6 = call noundef ptr @_ZNK4llvm25SmallVectorTemplateCommonIlvE10getFirstElEv(ptr noundef nonnull align 8 dereferenceable(16) %5)
  %7 = load i64, ptr %4, align 8
  call void @_ZN4llvm15SmallVectorBaseIjEC2EPvm(ptr noundef nonnull align 8 dereferenceable(16) %5, ptr noundef %6, i64 noundef %7)
  ret void
}

; Function Attrs: mustprogress nounwind uwtable
define internal noundef ptr @_ZN4llvm10adl_detail8end_implIRKNS_11SmallVectorIN12_GLOBAL__N_111ConditionTyELj2EEEEEDTcl3endclsr3stdE7forwardIT_Efp_EEEOS8_(ptr noundef nonnull align 8 dereferenceable(64) %0) #1 {
  %2 = alloca ptr, align 8
  store ptr %0, ptr %2, align 8
  %3 = load ptr, ptr %2, align 8
  %4 = call noundef ptr @_ZSt3endIN4llvm11SmallVectorIN12_GLOBAL__N_111ConditionTyELj2EEEEDTcldtfp_3endEERKT_(ptr noundef nonnull align 8 dereferenceable(64) %3)
  ret ptr %4
}

; Function Attrs: mustprogress nounwind uwtable
define internal noundef ptr @_ZN4llvm10adl_detail10begin_implIRKNS_11SmallVectorIN12_GLOBAL__N_111ConditionTyELj2EEEEEDTcl5beginclsr3stdE7forwardIT_Efp_EEEOS8_(ptr noundef nonnull align 8 dereferenceable(64) %0) #1 {
  %2 = alloca ptr, align 8
  store ptr %0, ptr %2, align 8
  %3 = load ptr, ptr %2, align 8
  %4 = call noundef ptr @_ZSt5beginIN4llvm11SmallVectorIN12_GLOBAL__N_111ConditionTyELj2EEEEDTcldtfp_5beginEERKT_(ptr noundef nonnull align 8 dereferenceable(64) %3)
  ret ptr %4
}

; Function Attrs: mustprogress nounwind uwtable
define linkonce_odr hidden noundef zeroext i1 @_ZNK4llvm25SmallVectorTemplateCommonIlvE7isSmallEv(ptr noundef nonnull align 8 dereferenceable(16) %0) #1 comdat align 2 {
  %2 = alloca ptr, align 8
  store ptr %0, ptr %2, align 8
  %3 = load ptr, ptr %2, align 8
  %4 = getelementptr inbounds nuw %"class.llvm::SmallVectorBase", ptr %3, i32 0, i32 0
  %5 = load ptr, ptr %4, align 8
  %6 = call noundef ptr @_ZNK4llvm25SmallVectorTemplateCommonIlvE10getFirstElEv(ptr noundef nonnull align 8 dereferenceable(16) %3)
  %7 = icmp eq ptr %5, %6
  ret i1 %7
}

; Function Attrs: mustprogress nounwind uwtable
define linkonce_odr hidden void @_ZN4llvm23SmallVectorTemplateBaseIlLb1EEC2Em(ptr noundef nonnull align 8 dereferenceable(16) %0, i64 noundef %1) unnamed_addr #1 comdat align 2 {
  %3 = alloca ptr, align 8
  %4 = alloca i64, align 8
  store ptr %0, ptr %3, align 8
  store i64 %1, ptr %4, align 8
  %5 = load ptr, ptr %3, align 8
  %6 = load i64, ptr %4, align 8
  call void @_ZN4llvm25SmallVectorTemplateCommonIlvEC2Em(ptr noundef nonnull align 8 dereferenceable(16) %5, i64 noundef %6)
  ret void
}

; Function Attrs: mustprogress nounwind uwtable
define internal noundef ptr @_ZN4llvm7adl_endIRKNS_11SmallVectorIN12_GLOBAL__N_111ConditionTyELj2EEEEEDTclsr10adl_detailE8end_implclsr3stdE7forwardIT_Efp_EEEOS7_(ptr noundef nonnull align 8 dereferenceable(64) %0) #1 {
  %2 = alloca ptr, align 8
  store ptr %0, ptr %2, align 8
  %3 = load ptr, ptr %2, align 8
  %4 = call noundef ptr @_ZN4llvm10adl_detail8end_implIRKNS_11SmallVectorIN12_GLOBAL__N_111ConditionTyELj2EEEEEDTcl3endclsr3stdE7forwardIT_Efp_EEEOS8_(ptr noundef nonnull align 8 dereferenceable(64) %3)
  ret ptr %4
}

; Function Attrs: mustprogress nounwind uwtable
define internal noundef ptr @_ZN4llvm9adl_beginIRKNS_11SmallVectorIN12_GLOBAL__N_111ConditionTyELj2EEEEEDTclsr10adl_detailE10begin_implclsr3stdE7forwardIT_Efp_EEEOS7_(ptr noundef nonnull align 8 dereferenceable(64) %0) #1 {
  %2 = alloca ptr, align 8
  store ptr %0, ptr %2, align 8
  %3 = load ptr, ptr %2, align 8
  %4 = call noundef ptr @_ZN4llvm10adl_detail10begin_implIRKNS_11SmallVectorIN12_GLOBAL__N_111ConditionTyELj2EEEEEDTcl5beginclsr3stdE7forwardIT_Efp_EEEOS8_(ptr noundef nonnull align 8 dereferenceable(64) %3)
  ret ptr %4
}

; Function Attrs: mustprogress nounwind uwtable
define linkonce_odr hidden void @_ZN4llvm15SmallVectorImplIlED2Ev(ptr noundef nonnull align 8 dereferenceable(16) %0) unnamed_addr #1 comdat align 2 {
  %2 = alloca ptr, align 8
  store ptr %0, ptr %2, align 8
  %3 = load ptr, ptr %2, align 8
  %4 = call noundef zeroext i1 @_ZNK4llvm25SmallVectorTemplateCommonIlvE7isSmallEv(ptr noundef nonnull align 8 dereferenceable(16) %3)
  br i1 %4, label %7, label %5

5:                                                ; preds = %1
  %6 = call noundef ptr @_ZN4llvm25SmallVectorTemplateCommonIlvE5beginEv(ptr noundef nonnull align 8 dereferenceable(16) %3)
  call void @free(ptr noundef %6) #2
  br label %7

7:                                                ; preds = %5, %1
  ret void
}

; Function Attrs: mustprogress nounwind uwtable
define linkonce_odr hidden void @_ZN4llvm23SmallVectorTemplateBaseIlLb1EE13destroy_rangeEPlS2_(ptr noundef %0, ptr noundef %1) #1 comdat align 2 {
  %3 = alloca ptr, align 8
  %4 = alloca ptr, align 8
  store ptr %0, ptr %3, align 8
  store ptr %1, ptr %4, align 8
  ret void
}

; Function Attrs: mustprogress nounwind uwtable
define linkonce_odr hidden noundef ptr @_ZN4llvm25SmallVectorTemplateCommonIlvE3endEv(ptr noundef nonnull align 8 dereferenceable(16) %0) #1 comdat align 2 {
  %2 = alloca ptr, align 8
  store ptr %0, ptr %2, align 8
  %3 = load ptr, ptr %2, align 8
  %4 = call noundef ptr @_ZN4llvm25SmallVectorTemplateCommonIlvE5beginEv(ptr noundef nonnull align 8 dereferenceable(16) %3)
  %5 = call noundef i64 @_ZNK4llvm15SmallVectorBaseIjE4sizeEv(ptr noundef nonnull align 8 dereferenceable(16) %3)
  %6 = getelementptr inbounds i64, ptr %4, i64 %5
  ret ptr %6
}

; Function Attrs: mustprogress nounwind uwtable
define linkonce_odr hidden noundef ptr @_ZN4llvm25SmallVectorTemplateCommonIlvE5beginEv(ptr noundef nonnull align 8 dereferenceable(16) %0) #1 comdat align 2 {
  %2 = alloca ptr, align 8
  store ptr %0, ptr %2, align 8
  %3 = load ptr, ptr %2, align 8
  %4 = getelementptr inbounds nuw %"class.llvm::SmallVectorBase", ptr %3, i32 0, i32 0
  %5 = load ptr, ptr %4, align 8
  ret ptr %5
}

; Function Attrs: mustprogress nounwind uwtable
define linkonce_odr hidden void @_ZN4llvm15SmallVectorImplIlEC2Ej(ptr noundef nonnull align 8 dereferenceable(16) %0, i32 noundef %1) unnamed_addr #1 comdat align 2 {
  %3 = alloca ptr, align 8
  %4 = alloca i32, align 4
  store ptr %0, ptr %3, align 8
  store i32 %1, ptr %4, align 4
  %5 = load ptr, ptr %3, align 8
  %6 = load i32, ptr %4, align 4
  %7 = zext i32 %6 to i64
  call void @_ZN4llvm23SmallVectorTemplateBaseIlLb1EEC2Em(ptr noundef nonnull align 8 dereferenceable(16) %5, i64 noundef %7)
  ret void
}

; Function Attrs: mustprogress nounwind uwtable
define internal noundef zeroext i1 @"_ZN4llvm6all_ofIRKNS_11SmallVectorIN12_GLOBAL__N_111ConditionTyELj2EEEZNKS2_12ConstraintTy7isValidERKNS2_14ConstraintInfoEE3$_0EEbOT_T0_"(ptr noundef nonnull align 8 dereferenceable(64) %0, ptr %1) #1 {
  %3 = alloca %class.anon.492, align 8
  %4 = alloca ptr, align 8
  %5 = alloca %class.anon.492, align 8
  %6 = getelementptr inbounds nuw %class.anon.492, ptr %3, i32 0, i32 0
  store ptr %1, ptr %6, align 8
  store ptr %0, ptr %4, align 8
  %7 = load ptr, ptr %4, align 8
  %8 = call noundef ptr @_ZN4llvm9adl_beginIRKNS_11SmallVectorIN12_GLOBAL__N_111ConditionTyELj2EEEEEDTclsr10adl_detailE10begin_implclsr3stdE7forwardIT_Efp_EEEOS7_(ptr noundef nonnull align 8 dereferenceable(64) %7)
  %9 = load ptr, ptr %4, align 8
  %10 = call noundef ptr @_ZN4llvm7adl_endIRKNS_11SmallVectorIN12_GLOBAL__N_111ConditionTyELj2EEEEEDTclsr10adl_detailE8end_implclsr3stdE7forwardIT_Efp_EEEOS7_(ptr noundef nonnull align 8 dereferenceable(64) %9)
  call void @llvm.memcpy.p0.p0.i64(ptr align 8 %5, ptr align 8 %3, i64 8, i1 false)
  %11 = getelementptr inbounds nuw %class.anon.492, ptr %5, i32 0, i32 0
  %12 = load ptr, ptr %11, align 8
  %13 = call noundef zeroext i1 @"_ZSt6all_ofIPKN12_GLOBAL__N_111ConditionTyEZNKS0_12ConstraintTy7isValidERKNS0_14ConstraintInfoEE3$_0EbT_S9_T0_"(ptr noundef %8, ptr noundef %10, ptr %12)
  ret i1 %13
}

; Function Attrs: mustprogress nounwind uwtable
define linkonce_odr hidden void @_ZN4llvm11SmallVectorIlLj8EED2Ev(ptr noundef nonnull align 8 dereferenceable(80) %0) unnamed_addr #1 comdat align 2 {
  %2 = alloca ptr, align 8
  store ptr %0, ptr %2, align 8
  %3 = load ptr, ptr %2, align 8
  %4 = call noundef ptr @_ZN4llvm25SmallVectorTemplateCommonIlvE5beginEv(ptr noundef nonnull align 8 dereferenceable(16) %3)
  %5 = call noundef ptr @_ZN4llvm25SmallVectorTemplateCommonIlvE3endEv(ptr noundef nonnull align 8 dereferenceable(16) %3)
  call void @_ZN4llvm23SmallVectorTemplateBaseIlLb1EE13destroy_rangeEPlS2_(ptr noundef %4, ptr noundef %5)
  call void @_ZN4llvm15SmallVectorImplIlED2Ev(ptr noundef nonnull align 8 dereferenceable(16) %3) #2
  ret void
}

; Function Attrs: mustprogress nounwind uwtable
define linkonce_odr hidden void @_ZN4llvm11SmallVectorIlLj8EEC2ERKS1_(ptr noundef nonnull align 8 dereferenceable(80) %0, ptr noundef nonnull align 8 dereferenceable(80) %1) unnamed_addr #1 comdat align 2 {
  %3 = alloca ptr, align 8
  %4 = alloca ptr, align 8
  store ptr %0, ptr %3, align 8
  store ptr %1, ptr %4, align 8
  %5 = load ptr, ptr %3, align 8
  call void @_ZN4llvm15SmallVectorImplIlEC2Ej(ptr noundef nonnull align 8 dereferenceable(16) %5, i32 noundef 8)
  %6 = load ptr, ptr %4, align 8
  %7 = call noundef zeroext i1 @_ZNK4llvm15SmallVectorBaseIjE5emptyEv(ptr noundef nonnull align 8 dereferenceable(16) %6)
  br i1 %7, label %11, label %8

8:                                                ; preds = %2
  %9 = load ptr, ptr %4, align 8
  %10 = call noundef nonnull align 8 dereferenceable(16) ptr @_ZN4llvm15SmallVectorImplIlEaSERKS1_(ptr noundef nonnull align 8 dereferenceable(16) %5, ptr noundef nonnull align 8 dereferenceable(16) %9)
  br label %11

11:                                               ; preds = %8, %2
  ret void
}

; Function Attrs: mustprogress nounwind uwtable
define internal noundef nonnull align 8 dereferenceable(624) ptr @_ZN12_GLOBAL__N_114ConstraintInfo5getCSEb(ptr noundef nonnull align 8 dereferenceable(1256) %0, i1 noundef zeroext %1) #1 align 2 {
  %3 = alloca ptr, align 8
  %4 = alloca i8, align 1
  store ptr %0, ptr %3, align 8
  %5 = zext i1 %1 to i8
  store i8 %5, ptr %4, align 1
  %6 = load ptr, ptr %3, align 8
  %7 = load i8, ptr %4, align 1
  %8 = trunc i8 %7 to i1
  br i1 %8, label %9, label %11

9:                                                ; preds = %2
  %10 = getelementptr inbounds nuw %"class.(anonymous namespace)::ConstraintInfo", ptr %6, i32 0, i32 1
  br label %13

11:                                               ; preds = %2
  %12 = getelementptr inbounds nuw %"class.(anonymous namespace)::ConstraintInfo", ptr %6, i32 0, i32 0
  br label %13

13:                                               ; preds = %11, %9
  %14 = phi ptr [ %10, %9 ], [ %12, %11 ]
  ret ptr %14
}

; Function Attrs: mustprogress nounwind uwtable
define internal noundef zeroext i1 @_ZNK12_GLOBAL__N_112ConstraintTy7isValidERKNS_14ConstraintInfoE(ptr noundef nonnull align 8 dereferenceable(243) %0, ptr noundef nonnull align 8 dereferenceable(1256) %1) #1 align 2 {
  %3 = alloca ptr, align 8
  %4 = alloca ptr, align 8
  %5 = alloca %class.anon.492, align 8
  store ptr %0, ptr %3, align 8
  store ptr %1, ptr %4, align 8
  %6 = load ptr, ptr %3, align 8
  %7 = getelementptr inbounds nuw %"struct.(anonymous namespace)::ConstraintTy", ptr %6, i32 0, i32 0
  %8 = call noundef i64 @_ZNK4llvm15SmallVectorBaseIjE4sizeEv(ptr noundef nonnull align 8 dereferenceable(16) %7)
  %9 = icmp ugt i64 %8, 0
  br i1 %9, label %10, label %17

10:                                               ; preds = %2
  %11 = getelementptr inbounds nuw %"struct.(anonymous namespace)::ConstraintTy", ptr %6, i32 0, i32 1
  %12 = getelementptr inbounds nuw %class.anon.492, ptr %5, i32 0, i32 0
  %13 = load ptr, ptr %4, align 8
  store ptr %13, ptr %12, align 8
  %14 = getelementptr inbounds nuw %class.anon.492, ptr %5, i32 0, i32 0
  %15 = load ptr, ptr %14, align 8
  %16 = call noundef zeroext i1 @"_ZN4llvm6all_ofIRKNS_11SmallVectorIN12_GLOBAL__N_111ConditionTyELj2EEEZNKS2_12ConstraintTy7isValidERKNS2_14ConstraintInfoEE3$_0EEbOT_T0_"(ptr noundef nonnull align 8 dereferenceable(64) %11, ptr %15)
  br label %17

17:                                               ; preds = %10, %2
  %18 = phi i1 [ false, %2 ], [ %16, %10 ]
  ret i1 %18
}

; Function Attrs: mustprogress nounwind uwtable
define internal noundef i32 @_ZNK12_GLOBAL__N_112ConstraintTy4sizeEv(ptr noundef nonnull align 8 dereferenceable(243) %0) #1 align 2 {
  %2 = alloca ptr, align 8
  store ptr %0, ptr %2, align 8
  %3 = load ptr, ptr %2, align 8
  %4 = getelementptr inbounds nuw %"struct.(anonymous namespace)::ConstraintTy", ptr %3, i32 0, i32 0
  %5 = call noundef i64 @_ZNK4llvm15SmallVectorBaseIjE4sizeEv(ptr noundef nonnull align 8 dereferenceable(16) %4)
  %6 = trunc i64 %5 to i32
  ret i32 %6
}

; Function Attrs: mustprogress nounwind uwtable
define internal noundef zeroext i1 @"_ZZL25tryToSimplifyOverflowMathPN4llvm13IntrinsicInstERN12_GLOBAL__N_114ConstraintInfoERNS_15SmallVectorImplIPNS_11InstructionEEEENK3$_0clENS_7CmpInst9PredicateEPNS_5ValueESE_S4_"(ptr noundef nonnull align 1 dereferenceable(1) %0, i32 noundef %1, ptr noundef %2, ptr noundef %3, ptr noundef nonnull align 8 dereferenceable(1256) %4) #1 align 2 {
  %6 = alloca i1, align 1
  %7 = alloca ptr, align 8
  %8 = alloca i32, align 4
  %9 = alloca ptr, align 8
  %10 = alloca ptr, align 8
  %11 = alloca ptr, align 8
  %12 = alloca %"struct.(anonymous namespace)::ConstraintTy", align 8
  %13 = alloca i32, align 4
  %14 = alloca ptr, align 8
  %15 = alloca %"class.llvm::SmallVector.328", align 8
  store ptr %0, ptr %7, align 8
  store i32 %1, ptr %8, align 4
  store ptr %2, ptr %9, align 8
  store ptr %3, ptr %10, align 8
  store ptr %4, ptr %11, align 8
  %16 = load ptr, ptr %11, align 8
  %17 = load i32, ptr %8, align 4
  %18 = load ptr, ptr %9, align 8
  %19 = load ptr, ptr %10, align 8
  call void @_ZNK12_GLOBAL__N_114ConstraintInfo23getConstraintForSolvingEN4llvm7CmpInst9PredicateEPNS1_5ValueES5_(ptr dead_on_unwind writable sret(%"struct.(anonymous namespace)::ConstraintTy") align 8 %12, ptr noundef nonnull align 8 dereferenceable(1256) %16, i32 noundef %17, ptr noundef %18, ptr noundef %19)
  %20 = call noundef i32 @_ZNK12_GLOBAL__N_112ConstraintTy4sizeEv(ptr noundef nonnull align 8 dereferenceable(243) %12)
  %21 = icmp ult i32 %20, 2
  br i1 %21, label %25, label %22

22:                                               ; preds = %5
  %23 = load ptr, ptr %11, align 8
  %24 = call noundef zeroext i1 @_ZNK12_GLOBAL__N_112ConstraintTy7isValidERKNS_14ConstraintInfoE(ptr noundef nonnull align 8 dereferenceable(243) %12, ptr noundef nonnull align 8 dereferenceable(1256) %23)
  br i1 %24, label %26, label %25

25:                                               ; preds = %22, %5
  store i1 false, ptr %6, align 1
  store i32 1, ptr %13, align 4
  br label %35

26:                                               ; preds = %22
  %27 = load ptr, ptr %11, align 8
  %28 = getelementptr inbounds nuw %"struct.(anonymous namespace)::ConstraintTy", ptr %12, i32 0, i32 3
  %29 = load i8, ptr %28, align 8
  %30 = trunc i8 %29 to i1
  %31 = call noundef nonnull align 8 dereferenceable(624) ptr @_ZN12_GLOBAL__N_114ConstraintInfo5getCSEb(ptr noundef nonnull align 8 dereferenceable(1256) %27, i1 noundef zeroext %30)
  store ptr %31, ptr %14, align 8
  %32 = load ptr, ptr %14, align 8
  %33 = getelementptr inbounds nuw %"struct.(anonymous namespace)::ConstraintTy", ptr %12, i32 0, i32 0
  call void @_ZN4llvm11SmallVectorIlLj8EEC2ERKS1_(ptr noundef nonnull align 8 dereferenceable(80) %15, ptr noundef nonnull align 8 dereferenceable(80) %33)
  %34 = call noundef zeroext i1 @_ZNK4llvm16ConstraintSystem18isConditionImpliedENS_11SmallVectorIlLj8EEE(ptr noundef nonnull align 8 dereferenceable(624) %32, ptr noundef %15)
  store i1 %34, ptr %6, align 1
  call void @_ZN4llvm11SmallVectorIlLj8EED2Ev(ptr noundef nonnull align 8 dereferenceable(80) %15) #2
  store i32 1, ptr %13, align 4
  br label %35

35:                                               ; preds = %26, %25
  call void @_ZN12_GLOBAL__N_112ConstraintTyD2Ev(ptr noundef nonnull align 8 dereferenceable(243) %12) #2
  %36 = load i1, ptr %6, align 1
  ret i1 %36
}