; Function Attrs: mustprogress nounwind uwtable
define internal fastcc noundef zeroext i1 @"_ZZL25tryToSimplifyOverflowMathPN4llvm13IntrinsicInstERN12_GLOBAL__N_114ConstraintInfoERNS_15SmallVectorImplIPNS_11InstructionEEEENK3$_0clENS_7CmpInst9PredicateEPNS_5ValueESE_S4_"(ptr noundef %0, ptr noundef %1, ptr noundef nonnull align 8 dereferenceable(1256) %2) unnamed_addr #0 align 2 {
  %4 = alloca %"struct.(anonymous namespace)::ConstraintTy", align 8
  %5 = alloca %"class.llvm::SmallVector.328", align 8
  call fastcc void @_ZNK12_GLOBAL__N_114ConstraintInfo23getConstraintForSolvingEN4llvm7CmpInst9PredicateEPNS1_5ValueES5_(ptr dead_on_unwind noalias nonnull writable align 8 %4, ptr noundef nonnull align 8 dereferenceable(1256) %2, i32 noundef 39, ptr noundef %0, ptr noundef %1)
  %6 = call noundef i64 @_ZNK4llvm15SmallVectorBaseIjE4sizeEv(ptr noundef nonnull align 8 dereferenceable(16) %4) #21
  %7 = and i64 %6, 4294967294
  %8 = icmp eq i64 %7, 0
  br i1 %8, label %_ZN4llvm11SmallVectorIlLj8EED2Ev.exit, label %9

9:                                                ; preds = %3
  %10 = call noundef i64 @_ZNK4llvm15SmallVectorBaseIjE4sizeEv(ptr noundef nonnull align 8 dereferenceable(16) %4) #21
  %.not.i = icmp eq i64 %10, 0
  br i1 %.not.i, label %_ZN4llvm11SmallVectorIlLj8EED2Ev.exit, label %_ZNK12_GLOBAL__N_112ConstraintTy7isValidERKNS_14ConstraintInfoE.exit

_ZNK12_GLOBAL__N_112ConstraintTy7isValidERKNS_14ConstraintInfoE.exit: ; preds = %9
  %11 = getelementptr inbounds nuw i8, ptr %4, i64 80
  %.val.i.i = load ptr, ptr %11, align 8
  %12 = call noundef i64 @_ZNK4llvm15SmallVectorBaseIjE4sizeEv(ptr noundef nonnull align 8 dereferenceable(16) %11) #21
  %13 = getelementptr inbounds %"struct.(anonymous namespace)::ConditionTy", ptr %.val.i.i, i64 %12
  %14 = call fastcc noundef zeroext i1 @"_ZSt6all_ofIPKN12_GLOBAL__N_111ConditionTyEZNKS0_12ConstraintTy7isValidERKNS0_14ConstraintInfoEE3$_0EbT_S9_T0_"(ptr noundef %.val.i.i, ptr noundef %13, ptr nonnull %2)
  br i1 %14, label %15, label %_ZN4llvm11SmallVectorIlLj8EED2Ev.exit

15:                                               ; preds = %_ZNK12_GLOBAL__N_112ConstraintTy7isValidERKNS_14ConstraintInfoE.exit
  %16 = getelementptr inbounds nuw i8, ptr %4, i64 240
  %17 = load i8, ptr %16, align 8
  %18 = trunc i8 %17 to i1
  %.idx.i = select i1 %18, i64 624, i64 0
  %19 = getelementptr inbounds nuw i8, ptr %2, i64 %.idx.i
  %20 = getelementptr inbounds i8, ptr %5, i64 16
  call void @_ZN4llvm15SmallVectorBaseIjEC2EPvm(ptr noundef nonnull align 8 dereferenceable(16) %5, ptr noundef nonnull %20, i64 noundef 8) #21
  %21 = call noundef zeroext i1 @_ZNK4llvm15SmallVectorBaseIjE5emptyEv(ptr noundef nonnull align 8 dereferenceable(16) %4) #21
  br i1 %21, label %_ZN4llvm11SmallVectorIlLj8EEC2ERKS1_.exit, label %22

22:                                               ; preds = %15
  %23 = call noundef nonnull align 8 dereferenceable(16) ptr @_ZN4llvm15SmallVectorImplIlEaSERKS1_(ptr noundef nonnull align 8 dereferenceable(16) %5, ptr noundef nonnull align 8 dereferenceable(16) %4)
  br label %_ZN4llvm11SmallVectorIlLj8EEC2ERKS1_.exit

_ZN4llvm11SmallVectorIlLj8EEC2ERKS1_.exit:        ; preds = %15, %22
  %24 = call noundef zeroext i1 @_ZNK4llvm16ConstraintSystem18isConditionImpliedENS_11SmallVectorIlLj8EEE(ptr noundef nonnull align 8 dereferenceable(624) %19, ptr noundef nonnull %5) #21
  %25 = call noundef i64 @_ZNK4llvm15SmallVectorBaseIjE4sizeEv(ptr noundef nonnull align 8 dereferenceable(16) %5) #21
  %26 = load ptr, ptr %5, align 8
  %27 = icmp eq ptr %26, %20
  br i1 %27, label %_ZN4llvm11SmallVectorIlLj8EED2Ev.exit, label %28

28:                                               ; preds = %_ZN4llvm11SmallVectorIlLj8EEC2ERKS1_.exit
  call void @free(ptr noundef %26) #21
  br label %_ZN4llvm11SmallVectorIlLj8EED2Ev.exit

_ZN4llvm11SmallVectorIlLj8EED2Ev.exit:            ; preds = %9, %28, %_ZN4llvm11SmallVectorIlLj8EEC2ERKS1_.exit, %3, %_ZNK12_GLOBAL__N_112ConstraintTy7isValidERKNS_14ConstraintInfoE.exit
  %.0 = phi i1 [ false, %_ZNK12_GLOBAL__N_112ConstraintTy7isValidERKNS_14ConstraintInfoE.exit ], [ false, %3 ], [ %24, %_ZN4llvm11SmallVectorIlLj8EEC2ERKS1_.exit ], [ %24, %28 ], [ false, %9 ]
  call fastcc void @_ZN12_GLOBAL__N_112ConstraintTyD2Ev(ptr noundef nonnull align 8 dereferenceable(243) %4) #21
  ret i1 %.0
}